; ModuleID = '35/1947.c'
source_filename = "35/1947.c"
target datalayout = "e-m:e-p270:32:32-p271:32:32-p272:64:64-i64:64-f80:128-n8:16:32:64-S128"
target triple = "x86_64-pc-linux-gnu"

@.str = private unnamed_addr constant [6 x i8] c"%d,%d\00", align 1
@.str.1 = private unnamed_addr constant [3 x i8] c"%d\00", align 1
@.str.2 = private unnamed_addr constant [6 x i8] c"%d+%d\00", align 1
@.str.3 = private unnamed_addr constant [3 x i8] c"No\00", align 1

; Function Attrs: noinline nounwind uwtable
define dso_local i32 @main() #0 {
  %1 = alloca i32, align 4
  %2 = alloca [10 x [10 x i32]], align 16
  %3 = alloca [1000 x i32], align 16
  %4 = alloca [1000 x i32], align 16
  %5 = alloca [1000 x i32], align 16
  %6 = alloca i32, align 4
  %7 = alloca i32, align 4
  %8 = alloca i32, align 4
  %9 = alloca i32, align 4
  %10 = alloca i32, align 4
  %11 = alloca i32, align 4
  store i32 0, i32* %1, align 4
  store i32 0, i32* %10, align 4
  store i32 0, i32* %11, align 4
  store i32 0, i32* %6, align 4
  br label %12

12:                                               ; preds = %19, %0
  %13 = load i32, i32* %6, align 4
  %14 = icmp slt i32 %13, 10
  br i1 %14, label %15, label %22

15:                                               ; preds = %12
  %16 = load i32, i32* %6, align 4
  %17 = sext i32 %16 to i64
  %18 = getelementptr inbounds [1000 x i32], [1000 x i32]* %5, i64 0, i64 %17
  store i32 0, i32* %18, align 4
  br label %19

19:                                               ; preds = %15
  %20 = load i32, i32* %6, align 4
  %21 = add nsw i32 %20, 1
  store i32 %21, i32* %6, align 4
  br label %12

22:                                               ; preds = %12
  %23 = call i32 (i8*, ...) @__isoc99_scanf(i8* getelementptr inbounds ([6 x i8], [6 x i8]* @.str, i64 0, i64 0), i32* %8, i32* %9)
  store i32 0, i32* %6, align 4
  br label %24

24:                                               ; preds = %45, %22
  %25 = load i32, i32* %6, align 4
  %26 = load i32, i32* %8, align 4
  %27 = icmp slt i32 %25, %26
  br i1 %27, label %28, label %48

28:                                               ; preds = %24
  store i32 0, i32* %7, align 4
  br label %29

29:                                               ; preds = %41, %28
  %30 = load i32, i32* %7, align 4
  %31 = load i32, i32* %9, align 4
  %32 = icmp slt i32 %30, %31
  br i1 %32, label %33, label %44

33:                                               ; preds = %29
  %34 = load i32, i32* %6, align 4
  %35 = sext i32 %34 to i64
  %36 = getelementptr inbounds [10 x [10 x i32]], [10 x [10 x i32]]* %2, i64 0, i64 %35
  %37 = load i32, i32* %7, align 4
  %38 = sext i32 %37 to i64
  %39 = getelementptr inbounds [10 x i32], [10 x i32]* %36, i64 0, i64 %38
  %40 = call i32 (i8*, ...) @__isoc99_scanf(i8* getelementptr inbounds ([3 x i8], [3 x i8]* @.str.1, i64 0, i64 0), i32* %39)
  br label %41

41:                                               ; preds = %33
  %42 = load i32, i32* %7, align 4
  %43 = add nsw i32 %42, 1
  store i32 %43, i32* %7, align 4
  br label %29

44:                                               ; preds = %29
  br label %45

45:                                               ; preds = %44
  %46 = load i32, i32* %6, align 4
  %47 = add nsw i32 %46, 1
  store i32 %47, i32* %6, align 4
  br label %24

48:                                               ; preds = %24
  store i32 0, i32* %6, align 4
  br label %49

49:                                               ; preds = %97, %48
  %50 = load i32, i32* %6, align 4
  %51 = load i32, i32* %8, align 4
  %52 = icmp slt i32 %50, %51
  br i1 %52, label %53, label %100

53:                                               ; preds = %49
  store i32 0, i32* %7, align 4
  br label %54

54:                                               ; preds = %91, %53
  %55 = load i32, i32* %7, align 4
  %56 = load i32, i32* %9, align 4
  %57 = icmp slt i32 %55, %56
  br i1 %57, label %58, label %94

58:                                               ; preds = %54
  %59 = load i32, i32* %6, align 4
  %60 = sext i32 %59 to i64
  %61 = getelementptr inbounds [10 x [10 x i32]], [10 x [10 x i32]]* %2, i64 0, i64 %60
  %62 = load i32, i32* %7, align 4
  %63 = sext i32 %62 to i64
  %64 = getelementptr inbounds [10 x i32], [10 x i32]* %61, i64 0, i64 %63
  %65 = load i32, i32* %64, align 4
  %66 = load i32, i32* %10, align 4
  %67 = sext i32 %66 to i64
  %68 = getelementptr inbounds [1000 x i32], [1000 x i32]* %5, i64 0, i64 %67
  %69 = load i32, i32* %68, align 4
  %70 = icmp sgt i32 %65, %69
  br i1 %70, label %71, label %90

71:                                               ; preds = %58
  %72 = load i32, i32* %6, align 4
  %73 = sext i32 %72 to i64
  %74 = getelementptr inbounds [10 x [10 x i32]], [10 x [10 x i32]]* %2, i64 0, i64 %73
  %75 = load i32, i32* %7, align 4
  %76 = sext i32 %75 to i64
  %77 = getelementptr inbounds [10 x i32], [10 x i32]* %74, i64 0, i64 %76
  %78 = load i32, i32* %77, align 4
  %79 = load i32, i32* %10, align 4
  %80 = sext i32 %79 to i64
  %81 = getelementptr inbounds [1000 x i32], [1000 x i32]* %5, i64 0, i64 %80
  store i32 %78, i32* %81, align 4
  %82 = load i32, i32* %6, align 4
  %83 = load i32, i32* %10, align 4
  %84 = sext i32 %83 to i64
  %85 = getelementptr inbounds [1000 x i32], [1000 x i32]* %3, i64 0, i64 %84
  store i32 %82, i32* %85, align 4
  %86 = load i32, i32* %7, align 4
  %87 = load i32, i32* %10, align 4
  %88 = sext i32 %87 to i64
  %89 = getelementptr inbounds [1000 x i32], [1000 x i32]* %4, i64 0, i64 %88
  store i32 %86, i32* %89, align 4
  br label %90

90:                                               ; preds = %71, %58
  br label %91

91:                                               ; preds = %90
  %92 = load i32, i32* %7, align 4
  %93 = add nsw i32 %92, 1
  store i32 %93, i32* %7, align 4
  br label %54

94:                                               ; preds = %54
  %95 = load i32, i32* %10, align 4
  %96 = add nsw i32 %95, 1
  store i32 %96, i32* %10, align 4
  br label %97

97:                                               ; preds = %94
  %98 = load i32, i32* %6, align 4
  %99 = add nsw i32 %98, 1
  store i32 %99, i32* %6, align 4
  br label %49

100:                                              ; preds = %49
  store i32 0, i32* %7, align 4
  br label %101

101:                                              ; preds = %175, %100
  %102 = load i32, i32* %7, align 4
  %103 = load i32, i32* %9, align 4
  %104 = icmp slt i32 %102, %103
  br i1 %104, label %105, label %178

105:                                              ; preds = %101
  store i32 0, i32* %10, align 4
  br label %106

106:                                              ; preds = %118, %105
  %107 = load i32, i32* %10, align 4
  %108 = icmp slt i32 %107, 10
  br i1 %108, label %109, label %121

109:                                              ; preds = %106
  %110 = load i32, i32* %10, align 4
  %111 = sext i32 %110 to i64
  %112 = getelementptr inbounds [1000 x i32], [1000 x i32]* %4, i64 0, i64 %111
  %113 = load i32, i32* %112, align 4
  %114 = load i32, i32* %7, align 4
  %115 = icmp eq i32 %113, %114
  br i1 %115, label %116, label %117

116:                                              ; preds = %109
  br label %121

117:                                              ; preds = %109
  br label %118

118:                                              ; preds = %117
  %119 = load i32, i32* %10, align 4
  %120 = add nsw i32 %119, 1
  store i32 %120, i32* %10, align 4
  br label %106

121:                                              ; preds = %116, %106
  store i32 0, i32* %6, align 4
  br label %122

122:                                              ; preds = %167, %121
  %123 = load i32, i32* %6, align 4
  %124 = load i32, i32* %8, align 4
  %125 = icmp slt i32 %123, %124
  br i1 %125, label %126, label %170

126:                                              ; preds = %122
  %127 = load i32, i32* %10, align 4
  %128 = sext i32 %127 to i64
  %129 = getelementptr inbounds [1000 x i32], [1000 x i32]* %3, i64 0, i64 %128
  %130 = load i32, i32* %129, align 4
  %131 = sext i32 %130 to i64
  %132 = getelementptr inbounds [10 x [10 x i32]], [10 x [10 x i32]]* %2, i64 0, i64 %131
  %133 = load i32, i32* %10, align 4
  %134 = sext i32 %133 to i64
  %135 = getelementptr inbounds [1000 x i32], [1000 x i32]* %4, i64 0, i64 %134
  %136 = load i32, i32* %135, align 4
  %137 = sext i32 %136 to i64
  %138 = getelementptr inbounds [10 x i32], [10 x i32]* %132, i64 0, i64 %137
  %139 = load i32, i32* %138, align 4
  %140 = load i32, i32* %6, align 4
  %141 = sext i32 %140 to i64
  %142 = getelementptr inbounds [10 x [10 x i32]], [10 x [10 x i32]]* %2, i64 0, i64 %141
  %143 = load i32, i32* %7, align 4
  %144 = sext i32 %143 to i64
  %145 = getelementptr inbounds [10 x i32], [10 x i32]* %142, i64 0, i64 %144
  %146 = load i32, i32* %145, align 4
  %147 = icmp sgt i32 %139, %146
  br i1 %147, label %148, label %149

148:                                              ; preds = %126
  br label %170

149:                                              ; preds = %126
  %150 = load i32, i32* %6, align 4
  %151 = load i32, i32* %8, align 4
  %152 = sub nsw i32 %151, 1
  %153 = icmp eq i32 %150, %152
  br i1 %153, label %154, label %166

154:                                              ; preds = %149
  %155 = load i32, i32* %10, align 4
  %156 = sext i32 %155 to i64
  %157 = getelementptr inbounds [1000 x i32], [1000 x i32]* %3, i64 0, i64 %156
  %158 = load i32, i32* %157, align 4
  %159 = load i32, i32* %10, align 4
  %160 = sext i32 %159 to i64
  %161 = getelementptr inbounds [1000 x i32], [1000 x i32]* %4, i64 0, i64 %160
  %162 = load i32, i32* %161, align 4
  %163 = call i32 (i8*, ...) @printf(i8* getelementptr inbounds ([6 x i8], [6 x i8]* @.str.2, i64 0, i64 0), i32 %158, i32 %162)
  %164 = load i32, i32* %11, align 4
  %165 = add nsw i32 %164, 1
  store i32 %165, i32* %11, align 4
  br label %166

166:                                              ; preds = %154, %149
  br label %167

167:                                              ; preds = %166
  %168 = load i32, i32* %6, align 4
  %169 = add nsw i32 %168, 1
  store i32 %169, i32* %6, align 4
  br label %122

170:                                              ; preds = %148, %122
  %171 = load i32, i32* %11, align 4
  %172 = icmp eq i32 %171, 1
  br i1 %172, label %173, label %174

173:                                              ; preds = %170
  br label %178

174:                                              ; preds = %170
  br label %175

175:                                              ; preds = %174
  %176 = load i32, i32* %7, align 4
  %177 = add nsw i32 %176, 1
  store i32 %177, i32* %7, align 4
  br label %101

178:                                              ; preds = %173, %101
  %179 = load i32, i32* %11, align 4
  %180 = icmp eq i32 %179, 0
  br i1 %180, label %181, label %183

181:                                              ; preds = %178
  %182 = call i32 (i8*, ...) @printf(i8* getelementptr inbounds ([3 x i8], [3 x i8]* @.str.3, i64 0, i64 0))
  br label %183

183:                                              ; preds = %181, %178
  ret i32 0
}

declare dso_local i32 @__isoc99_scanf(i8*, ...) #1

declare dso_local i32 @printf(i8*, ...) #1


!llvm.module.flags = !{!0}
!llvm.ident = !{!1}

!0 = !{i32 1, !"wchar_size", i32 4}
!1 = !{!"clang version 10.0.0-4ubuntu1 "}
